; Function Attrs: nounwind uwtable
define dso_local i32 @acct_storage_g_fini() local_unnamed_addr #0 {
  %1 = tail call i32 @pthread_rwlock_wrlock(ptr noundef nonnull @plugin_context_lock) #8
  %.not = icmp eq i32 %1, 0
  br i1 %.not, label %4, label %2

2:                                                ; preds = %0
  %3 = tail call ptr @__errno_location() #9
  store i32 %1, ptr %3, align 4
  tail call void (ptr, ...) @fatal_abort(ptr noundef nonnull @.str.1, ptr noundef nonnull @__func__.acct_storage_g_fini) #10
  unreachable

4:                                                ; preds = %0
  %5 = load ptr, ptr @plugin_context, align 8
  %.not8 = icmp eq ptr %5, null
  br i1 %.not8, label %8, label %6

6:                                                ; preds = %4
  %7 = tail call i32 @plugin_context_destroy(ptr noundef nonnull %5) #8
  store ptr null, ptr @plugin_context, align 8
  br label %8

8:                                                ; preds = %6, %4
  %.0 = phi i32 [ %7, %6 ], [ 0, %4 ]
  store i32 0, ptr @plugin_inited, align 4
  %9 = tail call i32 @pthread_rwlock_unlock(ptr noundef nonnull @plugin_context_lock) #8
  %.not9 = icmp eq i32 %9, 0
  br i1 %.not9, label %12, label %10

10:                                               ; preds = %8
  %11 = tail call ptr @__errno_location() #9
  store i32 %9, ptr %11, align 4
  tail call void (ptr, ...) @fatal_abort(ptr noundef nonnull @.str.4, ptr noundef nonnull @__func__.acct_storage_g_fini) #10
  unreachable

12:                                               ; preds = %8
  ret i32 %.0
}